target datalayout = "e-m:e-p270:32:32-p271:32:32-p272:64:64-i64:64-i128:128-f80:128-n8:16:32:64-S128"
target triple = "x86_64-pc-linux-gnu"

%struct.anon = type { i32, ptr, ptr }

@.str.11 = private unnamed_addr constant [1 x i8] zeroinitializer, align 1
@.str.13 = private unnamed_addr constant [2 x i8] c",\00", align 1
@.str.14 = private unnamed_addr constant [5 x i8] c"None\00", align 1
@.str.15 = private unnamed_addr constant [5 x i8] c"%s%s\00", align 1

; Function Attrs: nounwind uwtable
define dso_local ptr @slurmdb_acct_flags_2_str(i32 noundef %0) #0 {
  %2 = alloca ptr, align 8
  %3 = alloca i32, align 4
  %4 = alloca ptr, align 8
  %5 = alloca ptr, align 8
  %6 = alloca i32, align 4
  %7 = alloca i32, align 4
  store i32 %0, ptr %3, align 4
  call void @llvm.lifetime.start.p0(i64 8, ptr %4) #10
  store ptr null, ptr %4, align 8
  call void @llvm.lifetime.start.p0(i64 8, ptr %5) #10
  store ptr null, ptr %5, align 8
  %8 = load i32, ptr %3, align 4
  %9 = icmp eq i32 %8, 0
  br i1 %9, label %10, label %12

10:                                               ; preds = %1
  %11 = call ptr @xstrdup(ptr noundef @.str.14)
  store ptr %11, ptr %2, align 8
  store i32 1, ptr %6, align 4
  br label %47

12:                                               ; preds = %1
  call void @llvm.lifetime.start.p0(i64 4, ptr %7) #10
  store i32 0, ptr %7, align 4
  br label %13

13:                                               ; preds = %42, %12
  %14 = load i32, ptr %7, align 4
  %15 = sext i32 %14 to i64
  %16 = icmp ult i64 %15, 6
  br i1 %16, label %18, label %17

17:                                               ; preds = %13
  store i32 2, ptr %6, align 4
  call void @llvm.lifetime.end.p0(i64 4, ptr %7) #10
  br label %45

18:                                               ; preds = %13
  %19 = load i32, ptr %7, align 4
  %20 = sext i32 %19 to i64
  %21 = getelementptr inbounds [6 x %struct.anon], ptr @slurmdb_acct_flags_map, i64 0, i64 %20
  %22 = getelementptr inbounds nuw %struct.anon, ptr %21, i32 0, i32 0
  %23 = load i32, ptr %22, align 8
  %24 = load i32, ptr %3, align 4
  %25 = and i32 %23, %24
  %26 = load i32, ptr %7, align 4
  %27 = sext i32 %26 to i64
  %28 = getelementptr inbounds [6 x %struct.anon], ptr @slurmdb_acct_flags_map, i64 0, i64 %27
  %29 = getelementptr inbounds nuw %struct.anon, ptr %28, i32 0, i32 0
  %30 = load i32, ptr %29, align 8
  %31 = icmp eq i32 %25, %30
  br i1 %31, label %32, label %41

32:                                               ; preds = %18
  %33 = load ptr, ptr %4, align 8
  %34 = icmp ne ptr %33, null
  %35 = select i1 %34, ptr @.str.13, ptr @.str.11
  %36 = load i32, ptr %7, align 4
  %37 = sext i32 %36 to i64
  %38 = getelementptr inbounds [6 x %struct.anon], ptr @slurmdb_acct_flags_map, i64 0, i64 %37
  %39 = getelementptr inbounds nuw %struct.anon, ptr %38, i32 0, i32 2
  %40 = load ptr, ptr %39, align 8
  call void (ptr, ptr, ptr, ...) @_xstrfmtcatat(ptr noundef %4, ptr noundef %5, ptr noundef @.str.15, ptr noundef %35, ptr noundef %40)
  br label %41

41:                                               ; preds = %32, %18
  br label %42

42:                                               ; preds = %41
  %43 = load i32, ptr %7, align 4
  %44 = add nsw i32 %43, 1
  store i32 %44, ptr %7, align 4
  br label %13, !llvm.loop !20

45:                                               ; preds = %17
  %46 = load ptr, ptr %4, align 8
  store ptr %46, ptr %2, align 8
  store i32 1, ptr %6, align 4
  br label %47

47:                                               ; preds = %45, %10
  call void @llvm.lifetime.end.p0(i64 8, ptr %5) #10
  call void @llvm.lifetime.end.p0(i64 8, ptr %4) #10
  %48 = load ptr, ptr %2, align 8
  ret ptr %48
}