; Function Attrs: nounwind uwtable
define dso_local ptr @slurmdb_acct_flags_2_str(i32 noundef %0) local_unnamed_addr #0 {
  %2 = alloca ptr, align 8
  %3 = alloca ptr, align 8
  call void @llvm.lifetime.start.p0(i64 8, ptr nonnull %2) #19
  store ptr null, ptr %2, align 8
  call void @llvm.lifetime.start.p0(i64 8, ptr nonnull %3) #19
  store ptr null, ptr %3, align 8
  %4 = icmp eq i32 %0, 0
  br i1 %4, label %5, label %.preheader

5:                                                ; preds = %1
  %6 = tail call ptr @xstrdup(ptr noundef nonnull @.str.14) #19
  br label %19

7:                                                ; preds = %18
  %8 = load ptr, ptr %2, align 8
  br label %19

.preheader:                                       ; preds = %1, %18
  %indvars.iv = phi i64 [ %indvars.iv.next, %18 ], [ 0, %1 ]
  %9 = getelementptr inbounds nuw [6 x %struct.anon], ptr @slurmdb_acct_flags_map, i64 0, i64 %indvars.iv
  %10 = load i32, ptr %9, align 8
  %11 = and i32 %10, %0
  %12 = icmp eq i32 %11, %10
  br i1 %12, label %13, label %18

13:                                               ; preds = %.preheader
  %14 = load ptr, ptr %2, align 8
  %.not = icmp eq ptr %14, null
  %15 = select i1 %.not, ptr @.str.11, ptr @.str.13
  %16 = getelementptr inbounds nuw i8, ptr %9, i64 16
  %17 = load ptr, ptr %16, align 8
  call void (ptr, ptr, ptr, ...) @_xstrfmtcatat(ptr noundef nonnull %2, ptr noundef nonnull %3, ptr noundef nonnull @.str.15, ptr noundef nonnull %15, ptr noundef %17) #19
  br label %18

18:                                               ; preds = %.preheader, %13
  %indvars.iv.next = add nuw nsw i64 %indvars.iv, 1
  %exitcond.not = icmp eq i64 %indvars.iv.next, 6
  br i1 %exitcond.not, label %7, label %.preheader, !llvm.loop !17

19:                                               ; preds = %7, %5
  %.07 = phi ptr [ %6, %5 ], [ %8, %7 ]
  call void @llvm.lifetime.end.p0(i64 8, ptr nonnull %3) #19
  call void @llvm.lifetime.end.p0(i64 8, ptr nonnull %2) #19
  ret ptr %.07
}